target datalayout = "e-m:e-p270:32:32-p271:32:32-p272:64:64-i64:64-i128:128-f80:128-n8:16:32:64-S128"
target triple = "x86_64-pc-linux-gnu"

%struct.PyVarObject = type { %struct._object, i64 }
%struct._object = type { %union.anon, ptr }
%union.anon = type { i64 }
%struct.PyTupleObject = type { %struct.PyVarObject, [1 x ptr] }
%struct.PyDictObject = type { %struct._object, i64, i64, ptr, ptr }

; Function Attrs: inlinehint nounwind uwtable
define internal i64 @Py_SIZE(ptr noundef %0) #3 {
  %2 = alloca ptr, align 8
  store ptr %0, ptr %2, align 8, !tbaa !4
  %3 = load ptr, ptr %2, align 8, !tbaa !4
  %4 = getelementptr inbounds nuw %struct.PyVarObject, ptr %3, i32 0, i32 1
  %5 = load i64, ptr %4, align 8, !tbaa !128
  ret i64 %5
}

; Function Attrs: inlinehint nounwind uwtable
define internal i64 @PyDict_GET_SIZE(ptr noundef %0) #3 {
  %2 = alloca ptr, align 8
  %3 = alloca ptr, align 8
  store ptr %0, ptr %2, align 8, !tbaa !4
  call void @llvm.lifetime.start.p0(i64 8, ptr %3) #7
  %4 = load ptr, ptr %2, align 8, !tbaa !4
  store ptr %4, ptr %3, align 8, !tbaa !9
  %5 = load ptr, ptr %3, align 8, !tbaa !9
  %6 = getelementptr inbounds nuw %struct.PyDictObject, ptr %5, i32 0, i32 1
  %7 = load i64, ptr %6, align 8, !tbaa !123
  call void @llvm.lifetime.end.p0(i64 8, ptr %3) #7
  ret i64 %7
}

; Function Attrs: inlinehint nounwind uwtable
define internal i64 @PyTuple_GET_SIZE(ptr noundef %0) #3 {
  %2 = alloca ptr, align 8
  %3 = alloca ptr, align 8
  store ptr %0, ptr %2, align 8, !tbaa !4
  call void @llvm.lifetime.start.p0(i64 8, ptr %3) #7
  %4 = load ptr, ptr %2, align 8, !tbaa !4
  store ptr %4, ptr %3, align 8, !tbaa !9
  %5 = load ptr, ptr %3, align 8, !tbaa !9
  %6 = call i64 @Py_SIZE(ptr noundef %5)
  call void @llvm.lifetime.end.p0(i64 8, ptr %3) #7
  ret i64 %6
}

; Function Attrs: nounwind uwtable
define internal ptr @enum_new(ptr noundef %0, ptr noundef %1, ptr noundef %2) #0 {
  %4 = alloca ptr, align 8
  %5 = alloca ptr, align 8
  %6 = alloca ptr, align 8
  %7 = alloca ptr, align 8
  %8 = alloca [2 x ptr], align 16
  %9 = alloca ptr, align 8
  %10 = alloca i64, align 8
  %11 = alloca i64, align 8
  %12 = alloca ptr, align 8
  %13 = alloca ptr, align 8
  store ptr %0, ptr %4, align 8, !tbaa !29
  store ptr %1, ptr %5, align 8, !tbaa !4
  store ptr %2, ptr %6, align 8, !tbaa !4
  call void @llvm.lifetime.start.p0(i64 8, ptr %7) #7
  store ptr null, ptr %7, align 8, !tbaa !4
  call void @llvm.lifetime.start.p0(i64 16, ptr %8) #7
  call void @llvm.lifetime.start.p0(i64 8, ptr %9) #7
  call void @llvm.lifetime.start.p0(i64 8, ptr %10) #7
  %14 = load ptr, ptr %5, align 8, !tbaa !4
  %15 = call i64 @PyTuple_GET_SIZE(ptr noundef %14)
  store i64 %15, ptr %10, align 8, !tbaa !30
  call void @llvm.lifetime.start.p0(i64 8, ptr %11) #7
  %16 = load i64, ptr %10, align 8, !tbaa !30
  %17 = load ptr, ptr %6, align 8, !tbaa !4
  %18 = icmp ne ptr %17, null
  br i1 %18, label %19, label %22

19:                                               ; preds = %3
  %20 = load ptr, ptr %6, align 8, !tbaa !4
  %21 = call i64 @PyDict_GET_SIZE(ptr noundef %20)
  br label %23

22:                                               ; preds = %3
  br label %23

23:                                               ; preds = %22, %19
  %24 = phi i64 [ %21, %19 ], [ 0, %22 ]
  %25 = add i64 %16, %24
  %26 = sub i64 %25, 1
  store i64 %26, ptr %11, align 8, !tbaa !30
  call void @llvm.lifetime.start.p0(i64 8, ptr %12) #7
  call void @llvm.lifetime.start.p0(i64 8, ptr %13) #7
  store ptr null, ptr %13, align 8, !tbaa !4
  %27 = load ptr, ptr %6, align 8, !tbaa !4
  %28 = icmp eq ptr %27, null
  br i1 %28, label %29, label %44

29:                                               ; preds = %23
  %30 = load i64, ptr %10, align 8, !tbaa !30
  %31 = icmp sle i64 1, %30
  br i1 %31, label %32, label %44

32:                                               ; preds = %29
  %33 = load i64, ptr %10, align 8, !tbaa !30
  %34 = icmp sle i64 %33, 2
  br i1 %34, label %35, label %44

35:                                               ; preds = %32
  %36 = load ptr, ptr %5, align 8, !tbaa !4
  %37 = getelementptr inbounds nuw %struct.PyTupleObject, ptr %36, i32 0, i32 1
  %38 = getelementptr inbounds [1 x ptr], ptr %37, i64 0, i64 0
  %39 = icmp ne ptr %38, null
  br i1 %39, label %40, label %44

40:                                               ; preds = %35
  %41 = load ptr, ptr %5, align 8, !tbaa !4
  %42 = getelementptr inbounds nuw %struct.PyTupleObject, ptr %41, i32 0, i32 1
  %43 = getelementptr inbounds [1 x ptr], ptr %42, i64 0, i64 0
  br label %52

44:                                               ; preds = %35, %32, %29, %23
  %45 = load ptr, ptr %5, align 8, !tbaa !4
  %46 = getelementptr inbounds nuw %struct.PyTupleObject, ptr %45, i32 0, i32 1
  %47 = getelementptr inbounds [1 x ptr], ptr %46, i64 0, i64 0
  %48 = load i64, ptr %10, align 8, !tbaa !30
  %49 = load ptr, ptr %6, align 8, !tbaa !4
  %50 = getelementptr inbounds [2 x ptr], ptr %8, i64 0, i64 0
  %51 = call ptr @_PyArg_UnpackKeywords(ptr noundef %47, i64 noundef %48, ptr noundef %49, ptr noundef null, ptr noundef @enum_new._parser, i32 noundef 1, i32 noundef 2, i32 noundef 0, i32 noundef 0, ptr noundef %50)
  br label %52

52:                                               ; preds = %44, %40
  %53 = phi ptr [ %43, %40 ], [ %51, %44 ]
  store ptr %53, ptr %9, align 8, !tbaa !31
  %54 = load ptr, ptr %9, align 8, !tbaa !31
  %55 = icmp ne ptr %54, null
  br i1 %55, label %57, label %56

56:                                               ; preds = %52
  br label %73

57:                                               ; preds = %52
  %58 = load ptr, ptr %9, align 8, !tbaa !31
  %59 = getelementptr ptr, ptr %58, i64 0
  %60 = load ptr, ptr %59, align 8, !tbaa !4
  store ptr %60, ptr %12, align 8, !tbaa !4
  %61 = load i64, ptr %11, align 8, !tbaa !30
  %62 = icmp ne i64 %61, 0
  br i1 %62, label %64, label %63

63:                                               ; preds = %57
  br label %68

64:                                               ; preds = %57
  %65 = load ptr, ptr %9, align 8, !tbaa !31
  %66 = getelementptr ptr, ptr %65, i64 1
  %67 = load ptr, ptr %66, align 8, !tbaa !4
  store ptr %67, ptr %13, align 8, !tbaa !4
  br label %68

68:                                               ; preds = %64, %63
  %69 = load ptr, ptr %4, align 8, !tbaa !29
  %70 = load ptr, ptr %12, align 8, !tbaa !4
  %71 = load ptr, ptr %13, align 8, !tbaa !4
  %72 = call ptr @enum_new_impl(ptr noundef %69, ptr noundef %70, ptr noundef %71)
  store ptr %72, ptr %7, align 8, !tbaa !4
  br label %73

73:                                               ; preds = %68, %56
  %74 = load ptr, ptr %7, align 8, !tbaa !4
  call void @llvm.lifetime.end.p0(i64 8, ptr %13) #7
  call void @llvm.lifetime.end.p0(i64 8, ptr %12) #7
  call void @llvm.lifetime.end.p0(i64 8, ptr %11) #7
  call void @llvm.lifetime.end.p0(i64 8, ptr %10) #7
  call void @llvm.lifetime.end.p0(i64 8, ptr %9) #7
  call void @llvm.lifetime.end.p0(i64 16, ptr %8) #7
  call void @llvm.lifetime.end.p0(i64 8, ptr %7) #7
  ret ptr %74
}